; ModuleID = '2/982.c'
source_filename = "2/982.c"
target datalayout = "e-m:e-p270:32:32-p271:32:32-p272:64:64-i64:64-f80:128-n8:16:32:64-S128"
target triple = "x86_64-pc-linux-gnu"

%struct.book = type { [11 x i8], [30 x i8] }
%struct.au = type { i32, [1000 x [11 x i8]] }

@.str = private unnamed_addr constant [3 x i8] c"%d\00", align 1
@.str.1 = private unnamed_addr constant [5 x i8] c"%s%s\00", align 1
@.str.2 = private unnamed_addr constant [4 x i8] c"%c\0A\00", align 1
@.str.3 = private unnamed_addr constant [4 x i8] c"%d\0A\00", align 1
@.str.4 = private unnamed_addr constant [4 x i8] c"%s\0A\00", align 1

; Function Attrs: noinline nounwind uwtable
define dso_local void @main() #0 {
  %1 = alloca %struct.book, align 1
  %2 = alloca [26 x %struct.au], align 16
  %3 = alloca i32, align 4
  %4 = alloca i32, align 4
  %5 = alloca i32, align 4
  %6 = alloca i32, align 4
  %7 = alloca i8, align 1
  store i32 0, i32* %5, align 4
  store i32 0, i32* %4, align 4
  br label %8

8:                                                ; preds = %16, %0
  %9 = load i32, i32* %4, align 4
  %10 = icmp slt i32 %9, 26
  br i1 %10, label %11, label %19

11:                                               ; preds = %8
  %12 = load i32, i32* %4, align 4
  %13 = sext i32 %12 to i64
  %14 = getelementptr inbounds [26 x %struct.au], [26 x %struct.au]* %2, i64 0, i64 %13
  %15 = getelementptr inbounds %struct.au, %struct.au* %14, i32 0, i32 0
  store i32 0, i32* %15, align 4
  br label %16

16:                                               ; preds = %11
  %17 = load i32, i32* %4, align 4
  %18 = add nsw i32 %17, 1
  store i32 %18, i32* %4, align 4
  br label %8

19:                                               ; preds = %8
  %20 = call i32 (i8*, ...) @__isoc99_scanf(i8* getelementptr inbounds ([3 x i8], [3 x i8]* @.str, i64 0, i64 0), i32* %3)
  store i32 0, i32* %4, align 4
  br label %21

21:                                               ; preds = %71, %19
  %22 = load i32, i32* %4, align 4
  %23 = load i32, i32* %3, align 4
  %24 = icmp slt i32 %22, %23
  br i1 %24, label %25, label %74

25:                                               ; preds = %21
  %26 = getelementptr inbounds %struct.book, %struct.book* %1, i32 0, i32 0
  %27 = getelementptr inbounds [11 x i8], [11 x i8]* %26, i64 0, i64 0
  %28 = getelementptr inbounds %struct.book, %struct.book* %1, i32 0, i32 1
  %29 = getelementptr inbounds [30 x i8], [30 x i8]* %28, i64 0, i64 0
  %30 = call i32 (i8*, ...) @__isoc99_scanf(i8* getelementptr inbounds ([5 x i8], [5 x i8]* @.str.1, i64 0, i64 0), i8* %27, i8* %29)
  br label %31

31:                                               ; preds = %39, %25
  %32 = getelementptr inbounds %struct.book, %struct.book* %1, i32 0, i32 1
  %33 = load i32, i32* %5, align 4
  %34 = sext i32 %33 to i64
  %35 = getelementptr inbounds [30 x i8], [30 x i8]* %32, i64 0, i64 %34
  %36 = load i8, i8* %35, align 1
  %37 = sext i8 %36 to i32
  %38 = icmp ne i32 %37, 0
  br i1 %38, label %39, label %70

39:                                               ; preds = %31
  %40 = getelementptr inbounds %struct.book, %struct.book* %1, i32 0, i32 1
  %41 = load i32, i32* %5, align 4
  %42 = sext i32 %41 to i64
  %43 = getelementptr inbounds [30 x i8], [30 x i8]* %40, i64 0, i64 %42
  %44 = load i8, i8* %43, align 1
  %45 = sext i8 %44 to i32
  %46 = sub nsw i32 %45, 65
  store i32 %46, i32* %6, align 4
  %47 = load i32, i32* %6, align 4
  %48 = sext i32 %47 to i64
  %49 = getelementptr inbounds [26 x %struct.au], [26 x %struct.au]* %2, i64 0, i64 %48
  %50 = getelementptr inbounds %struct.au, %struct.au* %49, i32 0, i32 1
  %51 = load i32, i32* %6, align 4
  %52 = sext i32 %51 to i64
  %53 = getelementptr inbounds [26 x %struct.au], [26 x %struct.au]* %2, i64 0, i64 %52
  %54 = getelementptr inbounds %struct.au, %struct.au* %53, i32 0, i32 0
  %55 = load i32, i32* %54, align 4
  %56 = sext i32 %55 to i64
  %57 = getelementptr inbounds [1000 x [11 x i8]], [1000 x [11 x i8]]* %50, i64 0, i64 %56
  %58 = getelementptr inbounds [11 x i8], [11 x i8]* %57, i64 0, i64 0
  %59 = getelementptr inbounds %struct.book, %struct.book* %1, i32 0, i32 0
  %60 = getelementptr inbounds [11 x i8], [11 x i8]* %59, i64 0, i64 0
  %61 = call i8* @strcpy(i8* %58, i8* %60) #3
  %62 = load i32, i32* %6, align 4
  %63 = sext i32 %62 to i64
  %64 = getelementptr inbounds [26 x %struct.au], [26 x %struct.au]* %2, i64 0, i64 %63
  %65 = getelementptr inbounds %struct.au, %struct.au* %64, i32 0, i32 0
  %66 = load i32, i32* %65, align 4
  %67 = add nsw i32 %66, 1
  store i32 %67, i32* %65, align 4
  %68 = load i32, i32* %5, align 4
  %69 = add nsw i32 %68, 1
  store i32 %69, i32* %5, align 4
  br label %31

70:                                               ; preds = %31
  store i32 0, i32* %5, align 4
  br label %71

71:                                               ; preds = %70
  %72 = load i32, i32* %4, align 4
  %73 = add nsw i32 %72, 1
  store i32 %73, i32* %4, align 4
  br label %21

74:                                               ; preds = %21
  store i32 0, i32* %6, align 4
  store i32 0, i32* %5, align 4
  store i32 0, i32* %4, align 4
  br label %75

75:                                               ; preds = %109, %74
  %76 = load i32, i32* %4, align 4
  %77 = icmp slt i32 %76, 26
  br i1 %77, label %78, label %112

78:                                               ; preds = %75
  %79 = load i32, i32* %4, align 4
  %80 = sext i32 %79 to i64
  %81 = getelementptr inbounds [26 x %struct.au], [26 x %struct.au]* %2, i64 0, i64 %80
  %82 = getelementptr inbounds %struct.au, %struct.au* %81, i32 0, i32 0
  %83 = load i32, i32* %82, align 4
  %84 = load i32, i32* %6, align 4
  %85 = icmp sgt i32 %83, %84
  br i1 %85, label %86, label %88

86:                                               ; preds = %78
  %87 = load i32, i32* %4, align 4
  br label %90

88:                                               ; preds = %78
  %89 = load i32, i32* %5, align 4
  br label %90

90:                                               ; preds = %88, %86
  %91 = phi i32 [ %87, %86 ], [ %89, %88 ]
  store i32 %91, i32* %5, align 4
  %92 = load i32, i32* %4, align 4
  %93 = sext i32 %92 to i64
  %94 = getelementptr inbounds [26 x %struct.au], [26 x %struct.au]* %2, i64 0, i64 %93
  %95 = getelementptr inbounds %struct.au, %struct.au* %94, i32 0, i32 0
  %96 = load i32, i32* %95, align 4
  %97 = load i32, i32* %6, align 4
  %98 = icmp sgt i32 %96, %97
  br i1 %98, label %99, label %105

99:                                               ; preds = %90
  %100 = load i32, i32* %4, align 4
  %101 = sext i32 %100 to i64
  %102 = getelementptr inbounds [26 x %struct.au], [26 x %struct.au]* %2, i64 0, i64 %101
  %103 = getelementptr inbounds %struct.au, %struct.au* %102, i32 0, i32 0
  %104 = load i32, i32* %103, align 4
  br label %107

105:                                              ; preds = %90
  %106 = load i32, i32* %6, align 4
  br label %107

107:                                              ; preds = %105, %99
  %108 = phi i32 [ %104, %99 ], [ %106, %105 ]
  store i32 %108, i32* %6, align 4
  br label %109

109:                                              ; preds = %107
  %110 = load i32, i32* %4, align 4
  %111 = add nsw i32 %110, 1
  store i32 %111, i32* %4, align 4
  br label %75

112:                                              ; preds = %75
  %113 = load i32, i32* %5, align 4
  %114 = add nsw i32 65, %113
  %115 = call i32 (i8*, ...) @printf(i8* getelementptr inbounds ([4 x i8], [4 x i8]* @.str.2, i64 0, i64 0), i32 %114)
  %116 = load i32, i32* %6, align 4
  %117 = call i32 (i8*, ...) @printf(i8* getelementptr inbounds ([4 x i8], [4 x i8]* @.str.3, i64 0, i64 0), i32 %116)
  store i32 0, i32* %4, align 4
  br label %118

118:                                              ; preds = %132, %112
  %119 = load i32, i32* %4, align 4
  %120 = load i32, i32* %6, align 4
  %121 = icmp slt i32 %119, %120
  br i1 %121, label %122, label %135

122:                                              ; preds = %118
  %123 = load i32, i32* %5, align 4
  %124 = sext i32 %123 to i64
  %125 = getelementptr inbounds [26 x %struct.au], [26 x %struct.au]* %2, i64 0, i64 %124
  %126 = getelementptr inbounds %struct.au, %struct.au* %125, i32 0, i32 1
  %127 = load i32, i32* %4, align 4
  %128 = sext i32 %127 to i64
  %129 = getelementptr inbounds [1000 x [11 x i8]], [1000 x [11 x i8]]* %126, i64 0, i64 %128
  %130 = getelementptr inbounds [11 x i8], [11 x i8]* %129, i64 0, i64 0
  %131 = call i32 (i8*, ...) @printf(i8* getelementptr inbounds ([4 x i8], [4 x i8]* @.str.4, i64 0, i64 0), i8* %130)
  br label %132

132:                                              ; preds = %122
  %133 = load i32, i32* %4, align 4
  %134 = add nsw i32 %133, 1
  store i32 %134, i32* %4, align 4
  br label %118

135:                                              ; preds = %118
  ret void
}

declare dso_local i32 @__isoc99_scanf(i8*, ...) #1

; Function Attrs: nounwind
declare dso_local i8* @strcpy(i8*, i8*) #2

declare dso_local i32 @printf(i8*, ...) #1


!llvm.module.flags = !{!0}
!llvm.ident = !{!1}

!0 = !{i32 1, !"wchar_size", i32 4}
!1 = !{!"clang version 10.0.0-4ubuntu1 "}
